target datalayout = "e-m:e-p270:32:32-p271:32:32-p272:64:64-i64:64-i128:128-f80:128-n8:16:32:64-S128"
target triple = "x86_64-pc-linux-gnu"

%"class.cvc5::internal::NodeTemplate" = type { ptr }
%"class.std::unique_ptr.27" = type { %"struct.std::__uniq_ptr_data.28" }
%"struct.std::__uniq_ptr_data.28" = type { %"class.std::__uniq_ptr_impl.29" }
%"class.std::__uniq_ptr_impl.29" = type { %"class.std::tuple.30" }
%"class.std::tuple.30" = type { %"struct.std::_Tuple_impl.31" }
%"struct.std::_Tuple_impl.31" = type { %"struct.std::_Head_base.34" }
%"struct.std::_Head_base.34" = type { ptr }
%"class.cvc5::internal::prop::TheoryProxy" = type <{ %"class.cvc5::internal::EnvObj", %"class.cvc5::internal::prop::Registrar", ptr, ptr, %"class.std::unique_ptr", i8, i8, i8, [5 x i8], ptr, %"class.cvc5::context::CDQueue", %"class.cvc5::internal::theory::TheoryPreprocessor", ptr, %"class.std::unique_ptr.27", %"class.std::unique_ptr.35", %"class.std::unique_ptr.43", %"class.cvc5::context::CDO", i8, [7 x i8] }>
%"class.cvc5::internal::EnvObj" = type { ptr, ptr }
%"class.cvc5::internal::prop::Registrar" = type { ptr }
%"class.std::unique_ptr" = type { %"struct.std::__uniq_ptr_data" }
%"struct.std::__uniq_ptr_data" = type { %"class.std::__uniq_ptr_impl" }
%"class.std::__uniq_ptr_impl" = type { %"class.std::tuple" }
%"class.std::tuple" = type { %"struct.std::_Tuple_impl" }
%"struct.std::_Tuple_impl" = type { %"struct.std::_Head_base.1" }
%"struct.std::_Head_base.1" = type { ptr }
%"class.cvc5::context::CDQueue" = type { %"class.cvc5::context::CDList.base", i64, i64 }
%"class.cvc5::context::CDList.base" = type <{ %"class.cvc5::context::ContextObj", %"class.std::vector", i64, i8, i8 }>
%"class.cvc5::context::ContextObj" = type { ptr, ptr, ptr, ptr, ptr }
%"class.std::vector" = type { %"struct.std::_Vector_base" }
%"struct.std::_Vector_base" = type { %"struct.std::_Vector_base<std::pair<cvc5::internal::NodeTemplate<false>, int>, std::allocator<std::pair<cvc5::internal::NodeTemplate<false>, int>>>::_Vector_impl" }
%"struct.std::_Vector_base<std::pair<cvc5::internal::NodeTemplate<false>, int>, std::allocator<std::pair<cvc5::internal::NodeTemplate<false>, int>>>::_Vector_impl" = type { %"struct.std::_Vector_base<std::pair<cvc5::internal::NodeTemplate<false>, int>, std::allocator<std::pair<cvc5::internal::NodeTemplate<false>, int>>>::_Vector_impl_data" }
%"struct.std::_Vector_base<std::pair<cvc5::internal::NodeTemplate<false>, int>, std::allocator<std::pair<cvc5::internal::NodeTemplate<false>, int>>>::_Vector_impl_data" = type { ptr, ptr, ptr }
%"class.cvc5::internal::theory::TheoryPreprocessor" = type { %"class.cvc5::internal::EnvObj", ptr, %"class.cvc5::context::CDInsertHashMap", %"class.cvc5::internal::RemoveTermFormulas", %"class.std::unique_ptr.3", %"class.std::unique_ptr.3", %"class.std::unique_ptr.19", %"class.std::unique_ptr.11", %"class.cvc5::internal::RtfTermContext" }
%"class.cvc5::context::CDInsertHashMap" = type { %"class.cvc5::context::ContextObj", ptr, i64 }
%"class.cvc5::internal::RemoveTermFormulas" = type { %"class.cvc5::internal::EnvObj", %"class.cvc5::context::CDInsertHashMap", %"class.cvc5::context::CDInsertHashMap.2", %"class.std::unique_ptr.3", %"class.std::unique_ptr.3", %"class.std::unique_ptr.11", %"class.cvc5::internal::RtfTermContext" }
%"class.cvc5::context::CDInsertHashMap.2" = type { %"class.cvc5::context::ContextObj", ptr, i64 }
%"class.std::unique_ptr.3" = type { %"struct.std::__uniq_ptr_data.4" }
%"struct.std::__uniq_ptr_data.4" = type { %"class.std::__uniq_ptr_impl.5" }
%"class.std::__uniq_ptr_impl.5" = type { %"class.std::tuple.6" }
%"class.std::tuple.6" = type { %"struct.std::_Tuple_impl.7" }
%"struct.std::_Tuple_impl.7" = type { %"struct.std::_Head_base.10" }
%"struct.std::_Head_base.10" = type { ptr }
%"class.std::unique_ptr.19" = type { %"struct.std::__uniq_ptr_data.20" }
%"struct.std::__uniq_ptr_data.20" = type { %"class.std::__uniq_ptr_impl.21" }
%"class.std::__uniq_ptr_impl.21" = type { %"class.std::tuple.22" }
%"class.std::tuple.22" = type { %"struct.std::_Tuple_impl.23" }
%"struct.std::_Tuple_impl.23" = type { %"struct.std::_Head_base.26" }
%"struct.std::_Head_base.26" = type { ptr }
%"class.std::unique_ptr.11" = type { %"struct.std::__uniq_ptr_data.12" }
%"struct.std::__uniq_ptr_data.12" = type { %"class.std::__uniq_ptr_impl.13" }
%"class.std::__uniq_ptr_impl.13" = type { %"class.std::tuple.14" }
%"class.std::tuple.14" = type { %"struct.std::_Tuple_impl.15" }
%"struct.std::_Tuple_impl.15" = type { %"struct.std::_Head_base.18" }
%"struct.std::_Head_base.18" = type { ptr }
%"class.cvc5::internal::RtfTermContext" = type { %"class.cvc5::internal::TermContext" }
%"class.cvc5::internal::TermContext" = type { ptr }
%"class.std::unique_ptr.35" = type { %"struct.std::__uniq_ptr_data.36" }
%"struct.std::__uniq_ptr_data.36" = type { %"class.std::__uniq_ptr_impl.37" }
%"class.std::__uniq_ptr_impl.37" = type { %"class.std::tuple.38" }
%"class.std::tuple.38" = type { %"struct.std::_Tuple_impl.39" }
%"struct.std::_Tuple_impl.39" = type { %"struct.std::_Head_base.42" }
%"struct.std::_Head_base.42" = type { ptr }
%"class.std::unique_ptr.43" = type { %"struct.std::__uniq_ptr_data.44" }
%"struct.std::__uniq_ptr_data.44" = type { %"class.std::__uniq_ptr_impl.45" }
%"class.std::__uniq_ptr_impl.45" = type { %"class.std::tuple.46" }
%"class.std::tuple.46" = type { %"struct.std::_Tuple_impl.47" }
%"struct.std::_Tuple_impl.47" = type { %"struct.std::_Head_base.50" }
%"struct.std::_Head_base.50" = type { ptr }
%"class.cvc5::context::CDO" = type <{ %"class.cvc5::context::ContextObj", i8, [7 x i8] }>
%"class.std::__shared_count" = type { ptr }
%"struct.std::__detail::_Hash_node_base" = type { ptr }
%"struct.std::__detail::_Prime_rehash_policy" = type { float, i64 }
%"class.std::vector.374" = type { %"struct.std::_Vector_base.375" }
%"struct.std::_Vector_base.375" = type { %"struct.std::_Vector_base<cvc5::internal::NodeTemplate<false>, std::allocator<cvc5::internal::NodeTemplate<false>>>::_Vector_impl" }
%"struct.std::_Vector_base<cvc5::internal::NodeTemplate<false>, std::allocator<cvc5::internal::NodeTemplate<false>>>::_Vector_impl" = type { %"struct.std::_Vector_base<cvc5::internal::NodeTemplate<false>, std::allocator<cvc5::internal::NodeTemplate<false>>>::_Vector_impl_data" }
%"struct.std::_Vector_base<cvc5::internal::NodeTemplate<false>, std::allocator<cvc5::internal::NodeTemplate<false>>>::_Vector_impl_data" = type { ptr, ptr, ptr }
%"class.cvc5::internal::TheoryEngine" = type { %"class.cvc5::internal::EnvObj", ptr, [14 x ptr], %"class.std::shared_ptr", %"class.std::shared_ptr.336", %"class.std::unique_ptr.339", ptr, ptr, %"class.std::unique_ptr.347", %"class.std::unique_ptr.355", [14 x ptr], %"class.cvc5::context::CDO", %"class.cvc5::context::CDO", %"class.cvc5::context::CDO.363", %"class.cvc5::context::CDO.365", %"class.cvc5::context::CDO", %"class.cvc5::context::CDO.363", %"class.cvc5::context::CDO.365", %"class.cvc5::context::CDHashMap", %"class.cvc5::context::CDO.372", %"class.cvc5::context::CDList.373", %"class.cvc5::context::CDO.380", i8, i8, %"class.cvc5::internal::AtomRequests", %"class.std::unique_ptr.410", %"class.cvc5::internal::theory::TheoryEngineStatistics", %"class.cvc5::internal::NodeTemplate", %"class.cvc5::internal::NodeTemplate", i8, %"class.std::queue", i8, [7 x i8], %"class.cvc5::context::CDO", %"class.std::unique_ptr.418", %"class.std::vector.426", %"class.std::unique_ptr.431", %"class.std::vector.439" }
%"class.std::shared_ptr" = type { %"class.std::__shared_ptr" }
%"class.std::__shared_ptr" = type { ptr, %"class.std::__shared_count" }
%"class.std::shared_ptr.336" = type { %"class.std::__shared_ptr.337" }
%"class.std::__shared_ptr.337" = type { ptr, %"class.std::__shared_count" }
%"class.std::unique_ptr.339" = type { %"struct.std::__uniq_ptr_data.340" }
%"struct.std::__uniq_ptr_data.340" = type { %"class.std::__uniq_ptr_impl.341" }
%"class.std::__uniq_ptr_impl.341" = type { %"class.std::tuple.342" }
%"class.std::tuple.342" = type { %"struct.std::_Tuple_impl.343" }
%"struct.std::_Tuple_impl.343" = type { %"struct.std::_Head_base.346" }
%"struct.std::_Head_base.346" = type { ptr }
%"class.std::unique_ptr.347" = type { %"struct.std::__uniq_ptr_data.348" }
%"struct.std::__uniq_ptr_data.348" = type { %"class.std::__uniq_ptr_impl.349" }
%"class.std::__uniq_ptr_impl.349" = type { %"class.std::tuple.350" }
%"class.std::tuple.350" = type { %"struct.std::_Tuple_impl.351" }
%"struct.std::_Tuple_impl.351" = type { %"struct.std::_Head_base.354" }
%"struct.std::_Head_base.354" = type { ptr }
%"class.std::unique_ptr.355" = type { %"struct.std::__uniq_ptr_data.356" }
%"struct.std::__uniq_ptr_data.356" = type { %"class.std::__uniq_ptr_impl.357" }
%"class.std::__uniq_ptr_impl.357" = type { %"class.std::tuple.358" }
%"class.std::tuple.358" = type { %"struct.std::_Tuple_impl.359" }
%"struct.std::_Tuple_impl.359" = type { %"struct.std::_Head_base.362" }
%"struct.std::_Head_base.362" = type { ptr }
%"class.cvc5::context::CDO.363" = type <{ %"class.cvc5::context::ContextObj", i32, [4 x i8] }>
%"class.cvc5::context::CDO.365" = type <{ %"class.cvc5::context::ContextObj", i32, [4 x i8] }>
%"class.cvc5::context::CDHashMap" = type { %"class.cvc5::context::ContextObj", %"class.std::unordered_map", ptr, ptr }
%"class.std::unordered_map" = type { %"class.std::_Hashtable" }
%"class.std::_Hashtable" = type { [8 x i8], ptr, i64, %"struct.std::__detail::_Hash_node_base", i64, %"struct.std::__detail::_Prime_rehash_policy", ptr }
%"class.cvc5::context::CDO.372" = type { %"class.cvc5::context::ContextObj", i64 }
%"class.cvc5::context::CDList.373" = type <{ %"class.cvc5::context::ContextObj", %"class.std::vector.374", i64, i8, [7 x i8] }>
%"class.cvc5::context::CDO.380" = type <{ %"class.cvc5::context::ContextObj", i32, [4 x i8] }>
%"class.cvc5::internal::AtomRequests" = type { %"class.cvc5::context::CDHashSet.382", %"class.cvc5::context::CDList.384", %"class.cvc5::context::CDHashMap.391" }
%"class.cvc5::context::CDHashSet.382" = type { %"class.cvc5::context::CDInsertHashMap.383" }
%"class.cvc5::context::CDInsertHashMap.383" = type { %"class.cvc5::context::ContextObj", ptr, i64 }
%"class.cvc5::context::CDList.384" = type <{ %"class.cvc5::context::ContextObj", %"class.std::vector.385", i64, i8, [7 x i8] }>
%"class.std::vector.385" = type { %"struct.std::_Vector_base.386" }
%"struct.std::_Vector_base.386" = type { %"struct.std::_Vector_base<cvc5::internal::AtomRequests::Element, std::allocator<cvc5::internal::AtomRequests::Element>>::_Vector_impl" }
%"struct.std::_Vector_base<cvc5::internal::AtomRequests::Element, std::allocator<cvc5::internal::AtomRequests::Element>>::_Vector_impl" = type { %"struct.std::_Vector_base<cvc5::internal::AtomRequests::Element, std::allocator<cvc5::internal::AtomRequests::Element>>::_Vector_impl_data" }
%"struct.std::_Vector_base<cvc5::internal::AtomRequests::Element, std::allocator<cvc5::internal::AtomRequests::Element>>::_Vector_impl_data" = type { ptr, ptr, ptr }
%"class.cvc5::context::CDHashMap.391" = type { %"class.cvc5::context::ContextObj", %"class.std::unordered_map.392", ptr, ptr }
%"class.std::unordered_map.392" = type { %"class.std::_Hashtable.393" }
%"class.std::_Hashtable.393" = type { ptr, i64, %"struct.std::__detail::_Hash_node_base", i64, %"struct.std::__detail::_Prime_rehash_policy", ptr }
%"class.std::unique_ptr.410" = type { %"struct.std::__uniq_ptr_data.411" }
%"struct.std::__uniq_ptr_data.411" = type { %"class.std::__uniq_ptr_impl.412" }
%"class.std::__uniq_ptr_impl.412" = type { %"class.std::tuple.413" }
%"class.std::tuple.413" = type { %"struct.std::_Tuple_impl.414" }
%"struct.std::_Tuple_impl.414" = type { %"struct.std::_Head_base.417" }
%"struct.std::_Head_base.417" = type { ptr }
%"class.cvc5::internal::theory::TheoryEngineStatistics" = type { %"class.cvc5::internal::TimerStat", %"class.cvc5::internal::IntStat", %"class.cvc5::internal::IntStat", %"class.cvc5::internal::IntStat", %"class.cvc5::internal::IntStat" }
%"class.cvc5::internal::TimerStat" = type { ptr }
%"class.cvc5::internal::IntStat" = type { %"class.cvc5::internal::ValueStat" }
%"class.cvc5::internal::ValueStat" = type { ptr }
%"class.std::queue" = type { %"class.std::deque" }
%"class.std::deque" = type { %"class.std::_Deque_base" }
%"class.std::_Deque_base" = type { %"struct.std::_Deque_base<cvc5::internal::NodeTemplate<false>, std::allocator<cvc5::internal::NodeTemplate<false>>>::_Deque_impl" }
%"struct.std::_Deque_base<cvc5::internal::NodeTemplate<false>, std::allocator<cvc5::internal::NodeTemplate<false>>>::_Deque_impl" = type { %"struct.std::_Deque_base<cvc5::internal::NodeTemplate<false>, std::allocator<cvc5::internal::NodeTemplate<false>>>::_Deque_impl_data" }
%"struct.std::_Deque_base<cvc5::internal::NodeTemplate<false>, std::allocator<cvc5::internal::NodeTemplate<false>>>::_Deque_impl_data" = type { ptr, i64, %"struct.std::_Deque_iterator", %"struct.std::_Deque_iterator" }
%"struct.std::_Deque_iterator" = type { ptr, ptr, ptr, ptr }
%"class.std::unique_ptr.418" = type { %"struct.std::__uniq_ptr_data.419" }
%"struct.std::__uniq_ptr_data.419" = type { %"class.std::__uniq_ptr_impl.420" }
%"class.std::__uniq_ptr_impl.420" = type { %"class.std::tuple.421" }
%"class.std::tuple.421" = type { %"struct.std::_Tuple_impl.422" }
%"struct.std::_Tuple_impl.422" = type { %"struct.std::_Head_base.425" }
%"struct.std::_Head_base.425" = type { ptr }
%"class.std::vector.426" = type { %"struct.std::_Vector_base.427" }
%"struct.std::_Vector_base.427" = type { %"struct.std::_Vector_base<cvc5::internal::theory::TheoryEngineModule *, std::allocator<cvc5::internal::theory::TheoryEngineModule *>>::_Vector_impl" }
%"struct.std::_Vector_base<cvc5::internal::theory::TheoryEngineModule *, std::allocator<cvc5::internal::theory::TheoryEngineModule *>>::_Vector_impl" = type { %"struct.std::_Vector_base<cvc5::internal::theory::TheoryEngineModule *, std::allocator<cvc5::internal::theory::TheoryEngineModule *>>::_Vector_impl_data" }
%"struct.std::_Vector_base<cvc5::internal::theory::TheoryEngineModule *, std::allocator<cvc5::internal::theory::TheoryEngineModule *>>::_Vector_impl_data" = type { ptr, ptr, ptr }
%"class.std::unique_ptr.431" = type { %"struct.std::__uniq_ptr_data.432" }
%"struct.std::__uniq_ptr_data.432" = type { %"class.std::__uniq_ptr_impl.433" }
%"class.std::__uniq_ptr_impl.433" = type { %"class.std::tuple.434" }
%"class.std::tuple.434" = type { %"struct.std::_Tuple_impl.435" }
%"struct.std::_Tuple_impl.435" = type { %"struct.std::_Head_base.438" }
%"struct.std::_Head_base.438" = type { ptr }
%"class.std::vector.439" = type { %"struct.std::_Vector_base.440" }
%"struct.std::_Vector_base.440" = type { %"struct.std::_Vector_base<std::unique_ptr<cvc5::internal::theory::PluginModule>, std::allocator<std::unique_ptr<cvc5::internal::theory::PluginModule>>>::_Vector_impl" }
%"struct.std::_Vector_base<std::unique_ptr<cvc5::internal::theory::PluginModule>, std::allocator<std::unique_ptr<cvc5::internal::theory::PluginModule>>>::_Vector_impl" = type { %"struct.std::_Vector_base<std::unique_ptr<cvc5::internal::theory::PluginModule>, std::allocator<std::unique_ptr<cvc5::internal::theory::PluginModule>>>::_Vector_impl_data" }
%"struct.std::_Vector_base<std::unique_ptr<cvc5::internal::theory::PluginModule>, std::allocator<std::unique_ptr<cvc5::internal::theory::PluginModule>>>::_Vector_impl_data" = type { ptr, ptr, ptr }

; Function Attrs: mustprogress uwtable
define linkonce_odr hidden noundef zeroext i1 @_ZNK4cvc57context3CDOIbEcvKbEv(ptr noundef nonnull align 8 dereferenceable(41) %0) #6 comdat align 2 {
  %2 = alloca ptr, align 8
  store ptr %0, ptr %2, align 8, !tbaa !358
  %3 = load ptr, ptr %2, align 8
  %4 = call noundef nonnull align 1 dereferenceable(1) ptr @_ZNK4cvc57context3CDOIbE3getEv(ptr noundef nonnull align 8 dereferenceable(41) %3)
  %5 = load i8, ptr %4, align 1, !tbaa !10, !range !12, !noundef !13
  %6 = trunc i8 %5 to i1
  ret i1 %6
}

; Function Attrs: mustprogress uwtable
define linkonce_odr hidden noundef zeroext i1 @_ZNK4cvc58internal12TheoryEngine14isModelUnsoundEv(ptr noundef nonnull align 8 dereferenceable(1480) %0) #6 comdat align 2 {
  %2 = alloca ptr, align 8
  store ptr %0, ptr %2, align 8, !tbaa !22
  %3 = load ptr, ptr %2, align 8
  %4 = getelementptr inbounds nuw %"class.cvc5::internal::TheoryEngine", ptr %3, i32 0, i32 12
  %5 = call noundef zeroext i1 @_ZNK4cvc57context3CDOIbEcvKbEv(ptr noundef nonnull align 8 dereferenceable(41) %4)
  ret i1 %5
}

; Function Attrs: mustprogress nounwind uwtable
define linkonce_odr hidden noundef nonnull align 1 dereferenceable(1) ptr @_ZNK4cvc57context3CDOIbE3getEv(ptr noundef nonnull align 8 dereferenceable(41) %0) #4 comdat align 2 {
  %2 = alloca ptr, align 8
  store ptr %0, ptr %2, align 8, !tbaa !358
  %3 = load ptr, ptr %2, align 8
  %4 = getelementptr inbounds nuw %"class.cvc5::context::CDO", ptr %3, i32 0, i32 1
  ret ptr %4
}

; Function Attrs: mustprogress uwtable
define hidden noundef zeroext i1 @_ZNK4cvc58internal4prop11TheoryProxy14isModelUnsoundEv(ptr noundef nonnull align 8 dereferenceable(521) %0) #6 align 2 {
  %2 = alloca ptr, align 8
  store ptr %0, ptr %2, align 8, !tbaa !16
  %3 = load ptr, ptr %2, align 8
  %4 = getelementptr inbounds nuw %"class.cvc5::internal::prop::TheoryProxy", ptr %3, i32 0, i32 16
  %5 = call noundef nonnull align 1 dereferenceable(1) ptr @_ZNK4cvc57context3CDOIbE3getEv(ptr noundef nonnull align 8 dereferenceable(41) %4)
  %6 = load i8, ptr %5, align 1, !tbaa !10, !range !12, !noundef !13
  %7 = trunc i8 %6 to i1
  br i1 %7, label %12, label %8

8:                                                ; preds = %1
  %9 = getelementptr inbounds nuw %"class.cvc5::internal::prop::TheoryProxy", ptr %3, i32 0, i32 9
  %10 = load ptr, ptr %9, align 8, !tbaa !107
  %11 = call noundef zeroext i1 @_ZNK4cvc58internal12TheoryEngine14isModelUnsoundEv(ptr noundef nonnull align 8 dereferenceable(1480) %10)
  br label %12

12:                                               ; preds = %8, %1
  %13 = phi i1 [ true, %1 ], [ %11, %8 ]
  ret i1 %13
}