; Function Attrs: mustprogress nofree norecurse nosync nounwind willreturn memory(read, inaccessiblemem: none) uwtable
define hidden noundef zeroext i1 @_ZNK4cvc58internal4prop11TheoryProxy14isModelUnsoundEv(ptr noundef nonnull readonly align 8 captures(none) dereferenceable(521) %0) local_unnamed_addr #12 align 2 {
  %2 = getelementptr inbounds nuw i8, ptr %0, i64 512
  %3 = load i8, ptr %2, align 8, !tbaa !395, !range !305, !noundef !306
  %4 = trunc nuw i8 %3 to i1
  br i1 %4, label %11, label %5

5:                                                ; preds = %1
  %6 = getelementptr inbounds nuw i8, ptr %0, i64 56
  %7 = load ptr, ptr %6, align 8, !tbaa !89
  %8 = getelementptr inbounds nuw i8, ptr %7, i64 408
  %9 = load i8, ptr %8, align 1, !tbaa !395, !range !305, !noundef !306
  %10 = trunc nuw i8 %9 to i1
  br label %11

11:                                               ; preds = %5, %1
  %12 = phi i1 [ true, %1 ], [ %10, %5 ]
  ret i1 %12
}